; Function Attrs: mustprogress uwtable
define void @_ZN2cv15ImageCollection4Impl12releaseCacheEi(ptr noundef nonnull readonly align 8 captures(none) dereferenceable(104) %0, i32 noundef %1) local_unnamed_addr #4 align 2 personality ptr @__gxx_personality_v0 {
  %3 = alloca %"class.std::__cxx11::basic_string", align 8
  %4 = alloca %"class.std::allocator", align 1
  %5 = icmp sgt i32 %1, -1
  br i1 %5, label %6, label %11

6:                                                ; preds = %2
  %7 = zext nneg i32 %1 to i64
  %8 = getelementptr inbounds nuw i8, ptr %0, i64 40
  %9 = load i64, ptr %8, align 8, !tbaa !131
  %10 = icmp ugt i64 %9, %7
  br i1 %10, label %21, label %11

11:                                               ; preds = %6, %2
  call void @llvm.lifetime.start.p0(i64 32, ptr nonnull %3) #30
  call void @llvm.lifetime.start.p0(i64 1, ptr nonnull %4) #30
  call void @_ZNSt7__cxx1112basic_stringIcSt11char_traitsIcESaIcEEC2EPKcRKS3_(ptr noundef nonnull align 8 dereferenceable(32) %3, ptr noundef nonnull @.str.49, ptr noundef nonnull align 1 dereferenceable(1) %4)
  invoke void @_ZN2cv5errorEiRKNSt7__cxx1112basic_stringIcSt11char_traitsIcESaIcEEEPKcS9_i(i32 noundef -215, ptr noundef nonnull align 8 dereferenceable(32) %3, ptr noundef nonnull @__func__._ZN2cv15ImageCollection4Impl12releaseCacheEi, ptr noundef nonnull @.str.9, i32 noundef 1586) #33
          to label %12 unwind label %13

12:                                               ; preds = %11
  unreachable

13:                                               ; preds = %11
  %14 = landingpad { ptr, i32 }
          cleanup
  %15 = load ptr, ptr %3, align 8, !tbaa !32
  %16 = getelementptr inbounds nuw i8, ptr %3, i64 16
  %17 = icmp eq ptr %15, %16
  br i1 %17, label %_ZNKSt7__cxx1112basic_stringIcSt11char_traitsIcESaIcEE11_M_is_localEv.exit.thread.i.i, label %_ZNKSt7__cxx1112basic_stringIcSt11char_traitsIcESaIcEE11_M_is_localEv.exit.i.i

_ZNKSt7__cxx1112basic_stringIcSt11char_traitsIcESaIcEE11_M_is_localEv.exit.thread.i.i: ; preds = %13
  %18 = getelementptr inbounds nuw i8, ptr %3, i64 8
  %19 = load i64, ptr %18, align 8, !tbaa !36
  %20 = icmp ult i64 %19, 16
  call void @llvm.assume(i1 %20)
  br label %_ZNSt7__cxx1112basic_stringIcSt11char_traitsIcESaIcEED2Ev.exit

_ZNKSt7__cxx1112basic_stringIcSt11char_traitsIcESaIcEE11_M_is_localEv.exit.i.i: ; preds = %13
  call void @_ZdlPv(ptr noundef %15) #32
  br label %_ZNSt7__cxx1112basic_stringIcSt11char_traitsIcESaIcEED2Ev.exit

_ZNSt7__cxx1112basic_stringIcSt11char_traitsIcESaIcEED2Ev.exit: ; preds = %_ZNKSt7__cxx1112basic_stringIcSt11char_traitsIcESaIcEE11_M_is_localEv.exit.i.i, %_ZNKSt7__cxx1112basic_stringIcSt11char_traitsIcESaIcEE11_M_is_localEv.exit.thread.i.i
  call void @llvm.lifetime.end.p0(i64 1, ptr nonnull %4) #30
  call void @llvm.lifetime.end.p0(i64 32, ptr nonnull %3) #30
  resume { ptr, i32 } %14

21:                                               ; preds = %6
  %22 = getelementptr inbounds nuw i8, ptr %0, i64 64
  %23 = load ptr, ptr %22, align 8, !tbaa !141
  %24 = getelementptr inbounds nuw %"class.cv::Mat", ptr %23, i64 %7
  tail call void @_ZN2cv3Mat7releaseEv(ptr noundef nonnull align 8 dereferenceable(96) %24)
  ret void
}